target datalayout = "e-m:e-p270:32:32-p271:32:32-p272:64:64-i64:64-i128:128-f80:128-n8:16:32:64-S128"
target triple = "x86_64-pc-linux-gnu"

@.str.7 = private unnamed_addr constant [11 x i8] c"_N%d.bench\00", align 1

; Function Attrs: inlinehint nounwind uwtable
define internal i32 @Abc_TtWordNum(i32 noundef %0) #3 {
  %2 = alloca i32, align 4
  store i32 %0, ptr %2, align 4, !tbaa !14
  %3 = load i32, ptr %2, align 4, !tbaa !14
  %4 = icmp sle i32 %3, 6
  br i1 %4, label %5, label %6

5:                                                ; preds = %1
  br label %10

6:                                                ; preds = %1
  %7 = load i32, ptr %2, align 4, !tbaa !14
  %8 = sub nsw i32 %7, 6
  %9 = shl i32 1, %8
  br label %10

10:                                               ; preds = %6, %5
  %11 = phi i32 [ 1, %5 ], [ %9, %6 ]
  ret i32 %11
}

; Function Attrs: nounwind uwtable
define ptr @Vec_WrdReadTruthText(ptr noundef %0, i32 noundef %1, i32 noundef %2, i32 noundef %3) #0 {
  %5 = alloca ptr, align 8
  %6 = alloca ptr, align 8
  %7 = alloca i32, align 4
  %8 = alloca i32, align 4
  %9 = alloca i32, align 4
  %10 = alloca [1000 x i8], align 16
  %11 = alloca i32, align 4
  %12 = alloca i32, align 4
  %13 = alloca ptr, align 8
  %14 = alloca i32, align 4
  store ptr %0, ptr %6, align 8, !tbaa !3
  store i32 %1, ptr %7, align 4, !tbaa !14
  store i32 %2, ptr %8, align 4, !tbaa !14
  store i32 %3, ptr %9, align 4, !tbaa !14
  call void @llvm.lifetime.start.p0(i64 1000, ptr %10) #13
  call void @llvm.lifetime.start.p0(i64 4, ptr %11) #13
  call void @llvm.lifetime.start.p0(i64 4, ptr %12) #13
  %15 = load i32, ptr %7, align 4, !tbaa !14
  %16 = call i32 @Abc_TtWordNum(i32 noundef %15)
  store i32 %16, ptr %12, align 4, !tbaa !14
  call void @llvm.lifetime.start.p0(i64 8, ptr %13) #13
  %17 = load i32, ptr %8, align 4, !tbaa !14
  %18 = load i32, ptr %9, align 4, !tbaa !14
  %19 = mul nsw i32 %17, %18
  %20 = load i32, ptr %12, align 4, !tbaa !14
  %21 = mul nsw i32 %19, %20
  %22 = sext i32 %21 to i64
  %23 = call noalias ptr @calloc(i64 noundef %22, i64 noundef 8) #16
  store ptr %23, ptr %13, align 8, !tbaa !30
  store i32 0, ptr %11, align 4, !tbaa !14
  br label %24

24:                                               ; preds = %60, %4
  %25 = load i32, ptr %11, align 4, !tbaa !14
  %26 = load i32, ptr %9, align 4, !tbaa !14
  %27 = icmp slt i32 %25, %26
  br i1 %27, label %28, label %63

28:                                               ; preds = %24
  %29 = getelementptr inbounds [1000 x i8], ptr %10, i64 0, i64 0
  %30 = load ptr, ptr %6, align 8, !tbaa !3
  %31 = call ptr @strcpy(ptr noundef %29, ptr noundef %30) #13
  %32 = getelementptr inbounds [1000 x i8], ptr %10, i64 0, i64 0
  %33 = getelementptr inbounds [1000 x i8], ptr %10, i64 0, i64 0
  %34 = call i64 @strlen(ptr noundef %33) #14
  %35 = getelementptr inbounds nuw i8, ptr %32, i64 %34
  %36 = getelementptr inbounds i8, ptr %35, i64 -2
  %37 = load i32, ptr %11, align 4, !tbaa !14
  %38 = call i32 (ptr, ptr, ...) @sprintf(ptr noundef %36, ptr noundef @.str.7, i32 noundef %37) #13
  %39 = getelementptr inbounds [1000 x i8], ptr %10, i64 0, i64 0
  %40 = load i32, ptr %7, align 4, !tbaa !14
  %41 = load i32, ptr %8, align 4, !tbaa !14
  %42 = load ptr, ptr %13, align 8, !tbaa !30
  %43 = load i32, ptr %11, align 4, !tbaa !14
  %44 = load i32, ptr %8, align 4, !tbaa !14
  %45 = mul nsw i32 %43, %44
  %46 = load i32, ptr %12, align 4, !tbaa !14
  %47 = mul nsw i32 %45, %46
  %48 = sext i32 %47 to i64
  %49 = getelementptr inbounds i64, ptr %42, i64 %48
  %50 = call i32 @Vec_WrdReadTruthTextOne(ptr noundef %39, i32 noundef %40, i32 noundef %41, ptr noundef %49)
  %51 = icmp ne i32 %50, 0
  br i1 %51, label %59, label %52

52:                                               ; preds = %28
  %53 = load ptr, ptr %13, align 8, !tbaa !30
  %54 = icmp ne ptr %53, null
  br i1 %54, label %55, label %57

55:                                               ; preds = %52
  %56 = load ptr, ptr %13, align 8, !tbaa !30
  call void @free(ptr noundef %56) #13
  store ptr null, ptr %13, align 8, !tbaa !30
  br label %58

57:                                               ; preds = %52
  br label %58

58:                                               ; preds = %57, %55
  store ptr null, ptr %5, align 8
  store i32 1, ptr %14, align 4
  br label %65

59:                                               ; preds = %28
  br label %60

60:                                               ; preds = %59
  %61 = load i32, ptr %11, align 4, !tbaa !14
  %62 = add nsw i32 %61, 1
  store i32 %62, ptr %11, align 4, !tbaa !14
  br label %24, !llvm.loop !33

63:                                               ; preds = %24
  %64 = load ptr, ptr %13, align 8, !tbaa !30
  store ptr %64, ptr %5, align 8
  store i32 1, ptr %14, align 4
  br label %65

65:                                               ; preds = %63, %58
  call void @llvm.lifetime.end.p0(i64 8, ptr %13) #13
  call void @llvm.lifetime.end.p0(i64 4, ptr %12) #13
  call void @llvm.lifetime.end.p0(i64 4, ptr %11) #13
  call void @llvm.lifetime.end.p0(i64 1000, ptr %10) #13
  %66 = load ptr, ptr %5, align 8
  ret ptr %66
}